(lp0
(lp1
I58
aI7
aI33
aa(lp2
I66
aI74
aI31
aa(lp3
I71
aI47
aI58
aa(lp4
I23
aI12
aI95
aa(lp5
I98
aI80
aI23
aa(lp6
I85
aI27
aI40
aa(lp7
I71
aI68
aI95
aa(lp8
I83
aI87
aI62
aa(lp9
I22
aI33
aI74
aa(lp10
I43
aI77
aI30
aa(lp11
I25
aI2
aI89
aa(lp12
I69
aI42
aI19
aa(lp13
I82
aI56
aI46
aa(lp14
I49
aI37
aI80
aa(lp15
I32
aI12
aI1
aa(lp16
I82
aI65
aI18
aa(lp17
I50
aI4
aI24
aa(lp18
I75
aI32
aI25
aa(lp19
I39
aI48
aI80
aa(lp20
I60
aI29
aI60
aa.